target datalayout = "e-m:e-p270:32:32-p271:32:32-p272:64:64-i64:64-i128:128-f80:128-n8:16:32:64-S128"
target triple = "x86_64-pc-linux-gnu"

; Function Attrs: nounwind uwtable
define i32 @minimalInitialFlip1(ptr noundef %0, i32 noundef %1) #0 {
  %3 = alloca i32, align 4
  %4 = alloca ptr, align 8
  %5 = alloca i32, align 4
  %6 = alloca i64, align 8
  %7 = alloca i32, align 4
  store ptr %0, ptr %4, align 8, !tbaa !3
  store i32 %1, ptr %5, align 4, !tbaa !8
  call void @llvm.lifetime.start.p0(i64 8, ptr %6) #7
  store i64 1, ptr %6, align 8, !tbaa !10
  %8 = load ptr, ptr %4, align 8, !tbaa !3
  %9 = load i32, ptr %5, align 4, !tbaa !8
  %10 = call i32 @Kit_TruthWordNum_64bit(i32 noundef %9)
  %11 = sub nsw i32 %10, 1
  %12 = sext i32 %11 to i64
  %13 = getelementptr inbounds i64, ptr %8, i64 %12
  %14 = load i64, ptr %13, align 8, !tbaa !10
  %15 = lshr i64 %14, 63
  %16 = load i64, ptr %6, align 8, !tbaa !10
  %17 = and i64 %15, %16
  %18 = icmp ne i64 %17, 0
  br i1 %18, label %19, label %22

19:                                               ; preds = %2
  %20 = load ptr, ptr %4, align 8, !tbaa !3
  %21 = load i32, ptr %5, align 4, !tbaa !8
  call void @Kit_TruthNot_64bit(ptr noundef %20, i32 noundef %21)
  store i32 1, ptr %3, align 4
  store i32 1, ptr %7, align 4
  br label %23

22:                                               ; preds = %2
  store i32 0, ptr %3, align 4
  store i32 1, ptr %7, align 4
  br label %23

23:                                               ; preds = %22, %19
  call void @llvm.lifetime.end.p0(i64 8, ptr %6) #7
  %24 = load i32, ptr %3, align 4
  ret i32 %24
}

; Function Attrs: nounwind uwtable
define i32 @luckyCanonicizer1_simple(ptr noundef %0, ptr noundef %1, ptr noundef %2, i32 noundef %3, ptr noundef %4, i32 noundef %5) #0 {
  %7 = alloca ptr, align 8
  %8 = alloca ptr, align 8
  %9 = alloca ptr, align 8
  %10 = alloca i32, align 4
  %11 = alloca ptr, align 8
  %12 = alloca i32, align 4
  %13 = alloca i32, align 4
  store ptr %0, ptr %7, align 8, !tbaa !3
  store ptr %1, ptr %8, align 8, !tbaa !3
  store ptr %2, ptr %9, align 8, !tbaa !3
  store i32 %3, ptr %10, align 4, !tbaa !8
  store ptr %4, ptr %11, align 8, !tbaa !35
  store i32 %5, ptr %12, align 4, !tbaa !8
  call void @llvm.lifetime.start.p0(i64 4, ptr %13) #7
  store i32 1, ptr %13, align 4, !tbaa !8
  br label %14

14:                                               ; preds = %17, %6
  %15 = load i32, ptr %13, align 4, !tbaa !8
  %16 = icmp sgt i32 %15, 0
  br i1 %16, label %17, label %37

17:                                               ; preds = %14
  store i32 0, ptr %13, align 4, !tbaa !8
  %18 = load ptr, ptr %7, align 8, !tbaa !3
  %19 = load i32, ptr %10, align 4, !tbaa !8
  %20 = call i32 @minimalInitialFlip1(ptr noundef %18, i32 noundef %19)
  %21 = load i32, ptr %13, align 4, !tbaa !8
  %22 = add nsw i32 %21, %20
  store i32 %22, ptr %13, align 4, !tbaa !8
  %23 = load ptr, ptr %7, align 8, !tbaa !3
  %24 = load ptr, ptr %8, align 8, !tbaa !3
  %25 = load ptr, ptr %9, align 8, !tbaa !3
  %26 = load i32, ptr %10, align 4, !tbaa !8
  %27 = call i32 @minimalFlip1(ptr noundef %23, ptr noundef %24, ptr noundef %25, i32 noundef %26)
  %28 = load i32, ptr %13, align 4, !tbaa !8
  %29 = add nsw i32 %28, %27
  store i32 %29, ptr %13, align 4, !tbaa !8
  %30 = load ptr, ptr %7, align 8, !tbaa !3
  %31 = load ptr, ptr %8, align 8, !tbaa !3
  %32 = load ptr, ptr %9, align 8, !tbaa !3
  %33 = load i32, ptr %10, align 4, !tbaa !8
  %34 = call i32 @minimalSwap1(ptr noundef %30, ptr noundef %31, ptr noundef %32, i32 noundef %33)
  %35 = load i32, ptr %13, align 4, !tbaa !8
  %36 = add nsw i32 %35, %34
  store i32 %36, ptr %13, align 4, !tbaa !8
  br label %14, !llvm.loop !40

37:                                               ; preds = %14
  %38 = load i32, ptr %12, align 4, !tbaa !8
  call void @llvm.lifetime.end.p0(i64 4, ptr %13) #7
  ret i32 %38
}