; Function Attrs: nounwind uwtable
define noundef i32 @luckyCanonicizer1_simple(ptr noundef %0, ptr noundef captures(none) %1, ptr noundef captures(none) %2, i32 noundef %3, ptr noundef readnone captures(none) %4, i32 noundef returned %5) local_unnamed_addr #0 {
  %invariant.gep = getelementptr i8, ptr %0, i64 -8
  br label %7

7:                                                ; preds = %6, %minimalInitialFlip1.exit
  %8 = tail call i32 @Kit_TruthWordNum_64bit(i32 noundef %3) #19
  %9 = sext i32 %8 to i64
  %gep = getelementptr i64, ptr %invariant.gep, i64 %9
  %10 = load i64, ptr %gep, align 8, !tbaa !3
  %.not.i = icmp sgt i64 %10, -1
  br i1 %.not.i, label %minimalInitialFlip1.exit, label %11

11:                                               ; preds = %7
  tail call void @Kit_TruthNot_64bit(ptr noundef nonnull %0, i32 noundef %3) #19
  br label %minimalInitialFlip1.exit

minimalInitialFlip1.exit:                         ; preds = %7, %11
  %.0.i = phi i32 [ 1, %11 ], [ 0, %7 ]
  %12 = tail call i32 @minimalFlip1(ptr noundef nonnull %0, ptr noundef %1, ptr noundef %2, i32 noundef %3)
  %13 = add nuw nsw i32 %12, %.0.i
  %14 = tail call i32 @minimalSwap1(ptr noundef nonnull %0, ptr noundef %1, ptr noundef %2, i32 noundef %3)
  %15 = or i32 %13, %14
  %.not = icmp eq i32 %15, 0
  br i1 %.not, label %16, label %7, !llvm.loop !34

16:                                               ; preds = %minimalInitialFlip1.exit
  ret i32 %5
}